; Function Attrs: nofree norecurse nosync nounwind null_pointer_is_valid sspstrong memory(read, inaccessiblemem: none) uwtable
define hidden noundef zeroext i1 @rtt_is_retrans(ptr noundef readonly captures(address_is_null) %0, i32 noundef %1) local_unnamed_addr #8 {
  %.not10.not = icmp eq ptr %0, null
  br i1 %.not10.not, label %._crit_edge, label %.lr.ph

.lr.ph:                                           ; preds = %2, %10
  %.011 = phi ptr [ %11, %10 ], [ %0, %2 ]
  %3 = getelementptr inbounds nuw i8, ptr %.011, i64 16
  %4 = load i32, ptr %3, align 8
  %5 = sub i32 %1, %4
  %.not8 = icmp slt i32 %5, 0
  br i1 %.not8, label %10, label %6

6:                                                ; preds = %.lr.ph
  %7 = getelementptr inbounds nuw i8, ptr %.011, i64 20
  %8 = load i32, ptr %7, align 4
  %9 = sub i32 %1, %8
  %.not9 = icmp sgt i32 %9, -1
  br i1 %.not9, label %10, label %._crit_edge

10:                                               ; preds = %.lr.ph, %6
  %11 = load ptr, ptr %.011, align 8
  %.not.not = icmp eq ptr %11, null
  br i1 %.not.not, label %._crit_edge, label %.lr.ph, !llvm.loop !14

._crit_edge:                                      ; preds = %6, %10, %2
  %.not.lcssa = phi i1 [ false, %2 ], [ false, %10 ], [ true, %6 ]
  ret i1 %.not.lcssa
}